; Function Attrs: mustprogress nounwind uwtable
define noundef i32 @_Z26tMPI_Thread_cond_broadcastP18tMPI_Thread_cond_t(ptr nocapture noundef %0) local_unnamed_addr #1 {
  %2 = load i32, ptr %0, align 8
  %3 = icmp eq i32 %2, 0
  br i1 %3, label %4, label %18

4:                                                ; preds = %1
  %5 = tail call i32 @pthread_mutex_lock(ptr noundef nonnull @_ZL9cond_init) #13
  %.not.i = icmp eq i32 %5, 0
  br i1 %.not.i, label %6, label %_ZL26tMPI_Thread_cond_init_onceP18tMPI_Thread_cond_t.exit.thread

6:                                                ; preds = %4
  %7 = getelementptr inbounds i8, ptr %0, i64 64
  %8 = load ptr, ptr %7, align 8
  %9 = icmp eq ptr %8, null
  br i1 %9, label %10, label %_ZL26tMPI_Thread_cond_init_onceP18tMPI_Thread_cond_t.exit

10:                                               ; preds = %6
  %11 = tail call noalias dereferenceable_or_null(48) ptr @malloc(i64 noundef 48) #14
  store ptr %11, ptr %7, align 8
  %12 = icmp eq ptr %11, null
  br i1 %12, label %15, label %13

13:                                               ; preds = %10
  %14 = tail call i32 @pthread_cond_init(ptr noundef nonnull %11, ptr noundef null) #13
  %.not13.i = icmp eq i32 %14, 0
  br i1 %.not13.i, label %_ZL26tMPI_Thread_cond_init_onceP18tMPI_Thread_cond_t.exit, label %15

15:                                               ; preds = %13, %10
  %.0.i = phi i32 [ %14, %13 ], [ 12, %10 ]
  %16 = tail call i32 @pthread_mutex_unlock(ptr noundef nonnull @_ZL9cond_init) #13
  br label %_ZL26tMPI_Thread_cond_init_onceP18tMPI_Thread_cond_t.exit.thread

_ZL26tMPI_Thread_cond_init_onceP18tMPI_Thread_cond_t.exit: ; preds = %6, %13
  %17 = tail call i32 @pthread_mutex_unlock(ptr noundef nonnull @_ZL9cond_init) #13
  %.not = icmp eq i32 %17, 0
  br i1 %.not, label %18, label %_ZL26tMPI_Thread_cond_init_onceP18tMPI_Thread_cond_t.exit.thread

18:                                               ; preds = %_ZL26tMPI_Thread_cond_init_onceP18tMPI_Thread_cond_t.exit, %1
  %19 = getelementptr inbounds i8, ptr %0, i64 64
  %20 = load ptr, ptr %19, align 8
  %21 = tail call i32 @pthread_cond_broadcast(ptr noundef %20) #13
  br label %_ZL26tMPI_Thread_cond_init_onceP18tMPI_Thread_cond_t.exit.thread

_ZL26tMPI_Thread_cond_init_onceP18tMPI_Thread_cond_t.exit.thread: ; preds = %4, %15, %_ZL26tMPI_Thread_cond_init_onceP18tMPI_Thread_cond_t.exit, %18
  %.0 = phi i32 [ %21, %18 ], [ %17, %_ZL26tMPI_Thread_cond_init_onceP18tMPI_Thread_cond_t.exit ], [ %5, %4 ], [ %.0.i, %15 ]
  ret i32 %.0
}